; Function Attrs: nounwind uwtable
define noalias nonnull ptr @l_Array_forIn_x27Unsafe_loop___at___private_Lean_Meta_Tactic_Grind_EMatch_0__Lean_Meta_Grind_EMatch_synthesizeInsts___spec__6___lambda__1___boxed(ptr noundef %0, ptr noundef %1, ptr noundef %2, ptr noundef %3, ptr noundef %4, ptr noundef %5, ptr noundef %6, ptr noundef %7, ptr noundef %8, ptr noundef %9, ptr noundef %10, ptr noundef %11) #0 {
  tail call void @lean_inc_heartbeat() #5
  %13 = tail call noalias ptr @mi_malloc_small(i64 noundef 24) #5
  %14 = icmp eq ptr %13, null
  br i1 %14, label %15, label %l_Array_forIn_x27Unsafe_loop___at___private_Lean_Meta_Tactic_Grind_EMatch_0__Lean_Meta_Grind_EMatch_synthesizeInsts___spec__6___lambda__1.exit

15:                                               ; preds = %12
  tail call void @lean_internal_panic_out_of_memory() #6
  unreachable

l_Array_forIn_x27Unsafe_loop___at___private_Lean_Meta_Tactic_Grind_EMatch_0__Lean_Meta_Grind_EMatch_synthesizeInsts___spec__6___lambda__1.exit: ; preds = %12
  %16 = getelementptr inbounds nuw i8, ptr %13, i64 4
  store i32 1, ptr %13, align 4, !tbaa !8
  store i32 131096, ptr %16, align 4
  %17 = getelementptr inbounds nuw i8, ptr %13, i64 8
  store ptr inttoptr (i64 1 to ptr), ptr %17, align 8, !tbaa !4
  %18 = getelementptr inbounds nuw i8, ptr %13, i64 16
  store ptr %11, ptr %18, align 8, !tbaa !4
  %19 = ptrtoint ptr %10 to i64
  %20 = and i64 %19, 1
  %.not = icmp eq i64 %20, 0
  br i1 %.not, label %21, label %lean_dec.exit33

21:                                               ; preds = %l_Array_forIn_x27Unsafe_loop___at___private_Lean_Meta_Tactic_Grind_EMatch_0__Lean_Meta_Grind_EMatch_synthesizeInsts___spec__6___lambda__1.exit
  %22 = load i32, ptr %10, align 4, !tbaa !8
  %23 = icmp sgt i32 %22, 1
  br i1 %23, label %24, label %26, !prof !11

24:                                               ; preds = %21
  %25 = add nsw i32 %22, -1
  store i32 %25, ptr %10, align 4, !tbaa !8
  br label %lean_dec.exit33

26:                                               ; preds = %21
  %.not.i = icmp eq i32 %22, 0
  br i1 %.not.i, label %lean_dec.exit33, label %27

27:                                               ; preds = %26
  tail call void @lean_dec_ref_cold(ptr noundef nonnull %10) #5
  br label %lean_dec.exit33

lean_dec.exit33:                                  ; preds = %27, %26, %24, %l_Array_forIn_x27Unsafe_loop___at___private_Lean_Meta_Tactic_Grind_EMatch_0__Lean_Meta_Grind_EMatch_synthesizeInsts___spec__6___lambda__1.exit
  %28 = ptrtoint ptr %9 to i64
  %29 = and i64 %28, 1
  %.not54 = icmp eq i64 %29, 0
  br i1 %.not54, label %30, label %lean_dec.exit32

30:                                               ; preds = %lean_dec.exit33
  %31 = load i32, ptr %9, align 4, !tbaa !8
  %32 = icmp sgt i32 %31, 1
  br i1 %32, label %33, label %35, !prof !11

33:                                               ; preds = %30
  %34 = add nsw i32 %31, -1
  store i32 %34, ptr %9, align 4, !tbaa !8
  br label %lean_dec.exit32

35:                                               ; preds = %30
  %.not.i34 = icmp eq i32 %31, 0
  br i1 %.not.i34, label %lean_dec.exit32, label %36

36:                                               ; preds = %35
  tail call void @lean_dec_ref_cold(ptr noundef nonnull %9) #5
  br label %lean_dec.exit32

lean_dec.exit32:                                  ; preds = %36, %35, %33, %lean_dec.exit33
  %37 = ptrtoint ptr %8 to i64
  %38 = and i64 %37, 1
  %.not55 = icmp eq i64 %38, 0
  br i1 %.not55, label %39, label %lean_dec.exit31

39:                                               ; preds = %lean_dec.exit32
  %40 = load i32, ptr %8, align 4, !tbaa !8
  %41 = icmp sgt i32 %40, 1
  br i1 %41, label %42, label %44, !prof !11

42:                                               ; preds = %39
  %43 = add nsw i32 %40, -1
  store i32 %43, ptr %8, align 4, !tbaa !8
  br label %lean_dec.exit31

44:                                               ; preds = %39
  %.not.i36 = icmp eq i32 %40, 0
  br i1 %.not.i36, label %lean_dec.exit31, label %45

45:                                               ; preds = %44
  tail call void @lean_dec_ref_cold(ptr noundef nonnull %8) #5
  br label %lean_dec.exit31

lean_dec.exit31:                                  ; preds = %45, %44, %42, %lean_dec.exit32
  %46 = ptrtoint ptr %7 to i64
  %47 = and i64 %46, 1
  %.not56 = icmp eq i64 %47, 0
  br i1 %.not56, label %48, label %lean_dec.exit30

48:                                               ; preds = %lean_dec.exit31
  %49 = load i32, ptr %7, align 4, !tbaa !8
  %50 = icmp sgt i32 %49, 1
  br i1 %50, label %51, label %53, !prof !11

51:                                               ; preds = %48
  %52 = add nsw i32 %49, -1
  store i32 %52, ptr %7, align 4, !tbaa !8
  br label %lean_dec.exit30

53:                                               ; preds = %48
  %.not.i38 = icmp eq i32 %49, 0
  br i1 %.not.i38, label %lean_dec.exit30, label %54

54:                                               ; preds = %53
  tail call void @lean_dec_ref_cold(ptr noundef nonnull %7) #5
  br label %lean_dec.exit30

lean_dec.exit30:                                  ; preds = %54, %53, %51, %lean_dec.exit31
  %55 = ptrtoint ptr %6 to i64
  %56 = and i64 %55, 1
  %.not57 = icmp eq i64 %56, 0
  br i1 %.not57, label %57, label %lean_dec.exit29

57:                                               ; preds = %lean_dec.exit30
  %58 = load i32, ptr %6, align 4, !tbaa !8
  %59 = icmp sgt i32 %58, 1
  br i1 %59, label %60, label %62, !prof !11

60:                                               ; preds = %57
  %61 = add nsw i32 %58, -1
  store i32 %61, ptr %6, align 4, !tbaa !8
  br label %lean_dec.exit29

62:                                               ; preds = %57
  %.not.i40 = icmp eq i32 %58, 0
  br i1 %.not.i40, label %lean_dec.exit29, label %63

63:                                               ; preds = %62
  tail call void @lean_dec_ref_cold(ptr noundef nonnull %6) #5
  br label %lean_dec.exit29

lean_dec.exit29:                                  ; preds = %63, %62, %60, %lean_dec.exit30
  %64 = ptrtoint ptr %5 to i64
  %65 = and i64 %64, 1
  %.not58 = icmp eq i64 %65, 0
  br i1 %.not58, label %66, label %lean_dec.exit28

66:                                               ; preds = %lean_dec.exit29
  %67 = load i32, ptr %5, align 4, !tbaa !8
  %68 = icmp sgt i32 %67, 1
  br i1 %68, label %69, label %71, !prof !11

69:                                               ; preds = %66
  %70 = add nsw i32 %67, -1
  store i32 %70, ptr %5, align 4, !tbaa !8
  br label %lean_dec.exit28

71:                                               ; preds = %66
  %.not.i42 = icmp eq i32 %67, 0
  br i1 %.not.i42, label %lean_dec.exit28, label %72

72:                                               ; preds = %71
  tail call void @lean_dec_ref_cold(ptr noundef nonnull %5) #5
  br label %lean_dec.exit28

lean_dec.exit28:                                  ; preds = %72, %71, %69, %lean_dec.exit29
  %73 = ptrtoint ptr %4 to i64
  %74 = and i64 %73, 1
  %.not59 = icmp eq i64 %74, 0
  br i1 %.not59, label %75, label %lean_dec.exit27

75:                                               ; preds = %lean_dec.exit28
  %76 = load i32, ptr %4, align 4, !tbaa !8
  %77 = icmp sgt i32 %76, 1
  br i1 %77, label %78, label %80, !prof !11

78:                                               ; preds = %75
  %79 = add nsw i32 %76, -1
  store i32 %79, ptr %4, align 4, !tbaa !8
  br label %lean_dec.exit27

80:                                               ; preds = %75
  %.not.i44 = icmp eq i32 %76, 0
  br i1 %.not.i44, label %lean_dec.exit27, label %81

81:                                               ; preds = %80
  tail call void @lean_dec_ref_cold(ptr noundef nonnull %4) #5
  br label %lean_dec.exit27

lean_dec.exit27:                                  ; preds = %81, %80, %78, %lean_dec.exit28
  %82 = ptrtoint ptr %3 to i64
  %83 = and i64 %82, 1
  %.not60 = icmp eq i64 %83, 0
  br i1 %.not60, label %84, label %lean_dec.exit26

84:                                               ; preds = %lean_dec.exit27
  %85 = load i32, ptr %3, align 4, !tbaa !8
  %86 = icmp sgt i32 %85, 1
  br i1 %86, label %87, label %89, !prof !11

87:                                               ; preds = %84
  %88 = add nsw i32 %85, -1
  store i32 %88, ptr %3, align 4, !tbaa !8
  br label %lean_dec.exit26

89:                                               ; preds = %84
  %.not.i46 = icmp eq i32 %85, 0
  br i1 %.not.i46, label %lean_dec.exit26, label %90

90:                                               ; preds = %89
  tail call void @lean_dec_ref_cold(ptr noundef nonnull %3) #5
  br label %lean_dec.exit26

lean_dec.exit26:                                  ; preds = %90, %89, %87, %lean_dec.exit27
  %91 = ptrtoint ptr %2 to i64
  %92 = and i64 %91, 1
  %.not61 = icmp eq i64 %92, 0
  br i1 %.not61, label %93, label %lean_dec.exit25

93:                                               ; preds = %lean_dec.exit26
  %94 = load i32, ptr %2, align 4, !tbaa !8
  %95 = icmp sgt i32 %94, 1
  br i1 %95, label %96, label %98, !prof !11

96:                                               ; preds = %93
  %97 = add nsw i32 %94, -1
  store i32 %97, ptr %2, align 4, !tbaa !8
  br label %lean_dec.exit25

98:                                               ; preds = %93
  %.not.i48 = icmp eq i32 %94, 0
  br i1 %.not.i48, label %lean_dec.exit25, label %99

99:                                               ; preds = %98
  tail call void @lean_dec_ref_cold(ptr noundef nonnull %2) #5
  br label %lean_dec.exit25

lean_dec.exit25:                                  ; preds = %99, %98, %96, %lean_dec.exit26
  %100 = ptrtoint ptr %1 to i64
  %101 = and i64 %100, 1
  %.not62 = icmp eq i64 %101, 0
  br i1 %.not62, label %102, label %lean_dec.exit24

102:                                              ; preds = %lean_dec.exit25
  %103 = load i32, ptr %1, align 4, !tbaa !8
  %104 = icmp sgt i32 %103, 1
  br i1 %104, label %105, label %107, !prof !11

105:                                              ; preds = %102
  %106 = add nsw i32 %103, -1
  store i32 %106, ptr %1, align 4, !tbaa !8
  br label %lean_dec.exit24

107:                                              ; preds = %102
  %.not.i50 = icmp eq i32 %103, 0
  br i1 %.not.i50, label %lean_dec.exit24, label %108

108:                                              ; preds = %107
  tail call void @lean_dec_ref_cold(ptr noundef nonnull %1) #5
  br label %lean_dec.exit24

lean_dec.exit24:                                  ; preds = %108, %107, %105, %lean_dec.exit25
  %109 = ptrtoint ptr %0 to i64
  %110 = and i64 %109, 1
  %.not63 = icmp eq i64 %110, 0
  br i1 %.not63, label %111, label %lean_dec.exit

111:                                              ; preds = %lean_dec.exit24
  %112 = load i32, ptr %0, align 4, !tbaa !8
  %113 = icmp sgt i32 %112, 1
  br i1 %113, label %114, label %116, !prof !11

114:                                              ; preds = %111
  %115 = add nsw i32 %112, -1
  store i32 %115, ptr %0, align 4, !tbaa !8
  br label %lean_dec.exit

116:                                              ; preds = %111
  %.not.i52 = icmp eq i32 %112, 0
  br i1 %.not.i52, label %lean_dec.exit, label %117

117:                                              ; preds = %116
  tail call void @lean_dec_ref_cold(ptr noundef nonnull %0) #5
  br label %lean_dec.exit

lean_dec.exit:                                    ; preds = %117, %116, %114, %lean_dec.exit24
  ret ptr %13
}